target datalayout = "e-m:e-p270:32:32-p271:32:32-p272:64:64-i64:64-i128:128-f80:128-n8:16:32:64-S128"
target triple = "x86_64-pc-linux-gnu"

%struct.ggml_tensor = type { i32, ptr, [4 x i64], [4 x i64], i32, [16 x i32], i32, [10 x ptr], ptr, i64, ptr, [64 x i8], ptr, [8 x i8] }

; Function Attrs: nounwind uwtable
define ptr @ggml_new_tensor(ptr noundef %0, i32 noundef %1, i32 noundef %2, ptr noundef %3) #5 {
  %5 = alloca ptr, align 8
  %6 = alloca i32, align 4
  %7 = alloca i32, align 4
  %8 = alloca ptr, align 8
  store ptr %0, ptr %5, align 8, !tbaa !48
  store i32 %1, ptr %6, align 4, !tbaa !8
  store i32 %2, ptr %7, align 4, !tbaa !8
  store ptr %3, ptr %8, align 8, !tbaa !88
  %9 = load ptr, ptr %5, align 8, !tbaa !48
  %10 = load i32, ptr %6, align 4, !tbaa !8
  %11 = load i32, ptr %7, align 4, !tbaa !8
  %12 = load ptr, ptr %8, align 8, !tbaa !88
  %13 = call ptr @ggml_new_tensor_impl(ptr noundef %9, i32 noundef %10, i32 noundef %11, ptr noundef %12, ptr noundef null, i64 noundef 0)
  ret ptr %13
}

; Function Attrs: nounwind uwtable
define ptr @ggml_new_tensor_1d(ptr noundef %0, i32 noundef %1, i64 noundef %2) #5 {
  %4 = alloca ptr, align 8
  %5 = alloca i32, align 4
  %6 = alloca i64, align 8
  store ptr %0, ptr %4, align 8, !tbaa !48
  store i32 %1, ptr %5, align 4, !tbaa !8
  store i64 %2, ptr %6, align 8, !tbaa !19
  %7 = load ptr, ptr %4, align 8, !tbaa !48
  %8 = load i32, ptr %5, align 4, !tbaa !8
  %9 = call ptr @ggml_new_tensor(ptr noundef %7, i32 noundef %8, i32 noundef 1, ptr noundef %6)
  ret ptr %9
}

; Function Attrs: nounwind uwtable
define ptr @ggml_sum(ptr noundef %0, ptr noundef %1) #5 {
  %3 = alloca ptr, align 8
  %4 = alloca ptr, align 8
  %5 = alloca ptr, align 8
  store ptr %0, ptr %3, align 8, !tbaa !48
  store ptr %1, ptr %4, align 8, !tbaa !54
  call void @llvm.lifetime.start.p0(i64 8, ptr %5) #14
  %6 = load ptr, ptr %3, align 8, !tbaa !48
  %7 = load ptr, ptr %4, align 8, !tbaa !54
  %8 = getelementptr inbounds nuw %struct.ggml_tensor, ptr %7, i32 0, i32 0
  %9 = load i32, ptr %8, align 8, !tbaa !56
  %10 = call ptr @ggml_new_tensor_1d(ptr noundef %6, i32 noundef %9, i64 noundef 1)
  store ptr %10, ptr %5, align 8, !tbaa !54
  %11 = load ptr, ptr %5, align 8, !tbaa !54
  %12 = getelementptr inbounds nuw %struct.ggml_tensor, ptr %11, i32 0, i32 4
  store i32 13, ptr %12, align 8, !tbaa !68
  %13 = load ptr, ptr %4, align 8, !tbaa !54
  %14 = load ptr, ptr %5, align 8, !tbaa !54
  %15 = getelementptr inbounds nuw %struct.ggml_tensor, ptr %14, i32 0, i32 7
  %16 = getelementptr inbounds [10 x ptr], ptr %15, i64 0, i64 0
  store ptr %13, ptr %16, align 8, !tbaa !54
  %17 = load ptr, ptr %5, align 8, !tbaa !54
  call void @llvm.lifetime.end.p0(i64 8, ptr %5) #14
  ret ptr %17
}