; Function Attrs: nounwind uwtable
define noundef ptr @ggml_sum(ptr noundef captures(none) %0, ptr noundef %1) local_unnamed_addr #4 {
  %3 = alloca i64, align 8
  %4 = load i32, ptr %1, align 8, !tbaa !40
  call void @llvm.lifetime.start.p0(i64 8, ptr nonnull %3)
  store i64 1, ptr %3, align 8, !tbaa !39
  %5 = call fastcc noundef ptr @ggml_new_tensor_impl(ptr noundef %0, i32 noundef %4, i32 noundef 1, ptr noundef nonnull readonly %3, ptr noundef null, i64 noundef 0)
  call void @llvm.lifetime.end.p0(i64 8, ptr nonnull %3)
  %6 = getelementptr inbounds nuw i8, ptr %5, i64 80
  store i32 13, ptr %6, align 8, !tbaa !55
  %7 = getelementptr inbounds nuw i8, ptr %5, i64 152
  store ptr %1, ptr %7, align 8, !tbaa !81
  ret ptr %5
}